; Function Attrs: mustprogress uwtable
define internal fastcc void @_ZN17duckdb_libpgqueryL20check_qualified_nameEPNS_6PGListEPv(ptr noundef readonly captures(address_is_null) %0, ptr noundef %1) unnamed_addr #0 {
  %.not.i = icmp eq ptr %0, null
  br i1 %.not.i, label %._crit_edge, label %_ZN17duckdb_libpgqueryL9list_headEPKNS_6PGListE.exit

_ZN17duckdb_libpgqueryL9list_headEPKNS_6PGListE.exit: ; preds = %2
  %3 = getelementptr inbounds nuw i8, ptr %0, i64 8
  %4 = load ptr, ptr %3, align 8, !tbaa !72
  %.not5 = icmp eq ptr %4, null
  br i1 %.not5, label %._crit_edge, label %.lr.ph

.lr.ph:                                           ; preds = %_ZN17duckdb_libpgqueryL9list_headEPKNS_6PGListE.exit, %9
  %.06 = phi ptr [ %11, %9 ], [ %4, %_ZN17duckdb_libpgqueryL9list_headEPKNS_6PGListE.exit ]
  %5 = load ptr, ptr %.06, align 8, !tbaa !9
  %6 = load i32, ptr %5, align 4, !tbaa !386
  %7 = icmp eq i32 %6, 218
  br i1 %7, label %9, label %8

8:                                                ; preds = %.lr.ph
  tail call void @_ZN17duckdb_libpgquery15scanner_yyerrorEPKcPv(ptr noundef nonnull @.str.163, ptr noundef %1)
  br label %9

9:                                                ; preds = %.lr.ph, %8
  %10 = getelementptr inbounds nuw i8, ptr %.06, i64 8
  %11 = load ptr, ptr %10, align 8, !tbaa !74
  %.not = icmp eq ptr %11, null
  br i1 %.not, label %._crit_edge, label %.lr.ph, !llvm.loop !587

._crit_edge:                                      ; preds = %9, %2, %_ZN17duckdb_libpgqueryL9list_headEPKNS_6PGListE.exit
  ret void
}